target datalayout = "e-m:e-p270:32:32-p271:32:32-p272:64:64-i64:64-i128:128-f80:128-n8:16:32:64-S128"
target triple = "x86_64-pc-linux-gnu"

@hf_r3_alarmlog_recordnumber = internal global i32 0, align 4
@hf_r3_alarmlog_year = internal global i32 0, align 4
@hf_r3_alarmlog_month = internal global i32 0, align 4
@hf_r3_alarmlog_day = internal global i32 0, align 4
@hf_r3_alarmlog_hour = internal global i32 0, align 4
@hf_r3_alarmlog_minute = internal global i32 0, align 4
@hf_r3_alarmlog_second = internal global i32 0, align 4
@hf_r3_alarmlog_id = internal global i32 0, align 4
@hf_r3_alarmlog_usernumber = internal global i32 0, align 4
@ett_r3alarmlogrecord = internal global i32 0, align 4
@.str.1860 = private unnamed_addr constant [29 x i8] c"%s:%u: failed assertion \22%s\22\00", align 1
@.str.1861 = private unnamed_addr constant [33 x i8] c"epan/dissectors/packet-assa_r3.c\00", align 1
@.str.1862 = private unnamed_addr constant [18 x i8] c"start_offset == 0\00", align 1
@.str.2128 = private unnamed_addr constant [20 x i8] c"Alarm Log Record %u\00", align 1

; Function Attrs: null_pointer_is_valid sspstrong uwtable
define internal void @dissect_r3_upstreamcommand_dumpalarmlog(ptr noundef %0, i32 noundef %1, i32 noundef %2, ptr noundef %3, ptr noundef %4) #0 {
  %6 = alloca ptr, align 8
  %7 = alloca i32, align 4
  %8 = alloca i32, align 4
  %9 = alloca ptr, align 8
  %10 = alloca ptr, align 8
  %11 = alloca ptr, align 8
  %12 = alloca i32, align 4
  store ptr %0, ptr %6, align 8
  store i32 %1, ptr %7, align 4
  store i32 %2, ptr %8, align 4
  store ptr %3, ptr %9, align 8
  store ptr %4, ptr %10, align 8
  call void @llvm.lifetime.start.p0(i64 8, ptr %11) #5
  %13 = load ptr, ptr %10, align 8
  %14 = icmp ne ptr %13, null
  br i1 %14, label %16, label %15

15:                                               ; preds = %5
  store i32 1, ptr %12, align 4
  br label %67

16:                                               ; preds = %5
  %17 = load i32, ptr %7, align 4
  %18 = icmp eq i32 %17, 0
  br i1 %18, label %19, label %20

19:                                               ; preds = %16
  br label %22

20:                                               ; preds = %16
  call void (ptr, ...) @proto_report_dissector_bug(ptr noundef @.str.1860, ptr noundef @.str.1861, i32 noundef 4149, ptr noundef @.str.1862) #6
  unreachable

21:                                               ; No predecessors!
  br label %22

22:                                               ; preds = %21, %19
  %23 = load ptr, ptr %10, align 8
  %24 = load ptr, ptr %6, align 8
  %25 = load i32, ptr %7, align 4
  %26 = load i32, ptr @ett_r3alarmlogrecord, align 4
  %27 = load ptr, ptr %6, align 8
  %28 = call zeroext i16 @tvb_get_letohs(ptr noundef %27, i32 noundef 0)
  %29 = zext i16 %28 to i32
  %30 = call ptr (ptr, ptr, i32, i32, i32, ptr, ptr, ...) @proto_tree_add_subtree_format(ptr noundef %23, ptr noundef %24, i32 noundef %25, i32 noundef 9, i32 noundef %26, ptr noundef null, ptr noundef @.str.2128, i32 noundef %29)
  store ptr %30, ptr %11, align 8
  %31 = load ptr, ptr %11, align 8
  %32 = load i32, ptr @hf_r3_alarmlog_recordnumber, align 4
  %33 = load ptr, ptr %6, align 8
  %34 = call ptr @proto_tree_add_item(ptr noundef %31, i32 noundef %32, ptr noundef %33, i32 noundef 0, i32 noundef 2, i32 noundef -2147483648)
  %35 = load ptr, ptr %11, align 8
  %36 = load i32, ptr @hf_r3_alarmlog_year, align 4
  %37 = load ptr, ptr %6, align 8
  %38 = call ptr @proto_tree_add_item(ptr noundef %35, i32 noundef %36, ptr noundef %37, i32 noundef 2, i32 noundef 1, i32 noundef -2147483648)
  %39 = load ptr, ptr %11, align 8
  %40 = load i32, ptr @hf_r3_alarmlog_month, align 4
  %41 = load ptr, ptr %6, align 8
  %42 = call ptr @proto_tree_add_item(ptr noundef %39, i32 noundef %40, ptr noundef %41, i32 noundef 3, i32 noundef 1, i32 noundef -2147483648)
  %43 = load ptr, ptr %11, align 8
  %44 = load i32, ptr @hf_r3_alarmlog_day, align 4
  %45 = load ptr, ptr %6, align 8
  %46 = call ptr @proto_tree_add_item(ptr noundef %43, i32 noundef %44, ptr noundef %45, i32 noundef 4, i32 noundef 1, i32 noundef -2147483648)
  %47 = load ptr, ptr %11, align 8
  %48 = load i32, ptr @hf_r3_alarmlog_hour, align 4
  %49 = load ptr, ptr %6, align 8
  %50 = call ptr @proto_tree_add_item(ptr noundef %47, i32 noundef %48, ptr noundef %49, i32 noundef 5, i32 noundef 1, i32 noundef -2147483648)
  %51 = load ptr, ptr %11, align 8
  %52 = load i32, ptr @hf_r3_alarmlog_minute, align 4
  %53 = load ptr, ptr %6, align 8
  %54 = call ptr @proto_tree_add_item(ptr noundef %51, i32 noundef %52, ptr noundef %53, i32 noundef 6, i32 noundef 1, i32 noundef -2147483648)
  %55 = load ptr, ptr %11, align 8
  %56 = load i32, ptr @hf_r3_alarmlog_second, align 4
  %57 = load ptr, ptr %6, align 8
  %58 = call ptr @proto_tree_add_item(ptr noundef %55, i32 noundef %56, ptr noundef %57, i32 noundef 7, i32 noundef 1, i32 noundef -2147483648)
  %59 = load ptr, ptr %11, align 8
  %60 = load i32, ptr @hf_r3_alarmlog_id, align 4
  %61 = load ptr, ptr %6, align 8
  %62 = call ptr @proto_tree_add_item(ptr noundef %59, i32 noundef %60, ptr noundef %61, i32 noundef 8, i32 noundef 1, i32 noundef -2147483648)
  %63 = load ptr, ptr %11, align 8
  %64 = load i32, ptr @hf_r3_alarmlog_usernumber, align 4
  %65 = load ptr, ptr %6, align 8
  %66 = call ptr @proto_tree_add_item(ptr noundef %63, i32 noundef %64, ptr noundef %65, i32 noundef 9, i32 noundef 2, i32 noundef -2147483648)
  store i32 0, ptr %12, align 4
  br label %67

67:                                               ; preds = %22, %15
  call void @llvm.lifetime.end.p0(i64 8, ptr %11) #5
  %68 = load i32, ptr %12, align 4
  switch i32 %68, label %70 [
    i32 0, label %69
    i32 1, label %69
  ]

69:                                               ; preds = %67, %67
  ret void

70:                                               ; preds = %67
  unreachable
}