; Function Attrs: null_pointer_is_valid sspstrong uwtable
define internal void @dissect_r3_upstreamcommand_dumpalarmlog(ptr noundef %0, i32 noundef %1, i32 %2, ptr readnone captures(none) %3, ptr noundef %4) #0 {
  %.not = icmp eq ptr %4, null
  br i1 %.not, label %32, label %6

6:                                                ; preds = %5
  %7 = icmp eq i32 %1, 0
  br i1 %7, label %9, label %8

8:                                                ; preds = %6
  tail call void (ptr, ...) @proto_report_dissector_bug(ptr noundef nonnull @.str.1860, ptr noundef nonnull @.str.1861, i32 noundef 4149, ptr noundef nonnull @.str.1862) #6
  unreachable

9:                                                ; preds = %6
  %10 = load i32, ptr @ett_r3alarmlogrecord, align 4
  %11 = tail call zeroext i16 @tvb_get_letohs(ptr noundef %0, i32 noundef 0)
  %12 = zext i16 %11 to i32
  %13 = tail call ptr (ptr, ptr, i32, i32, i32, ptr, ptr, ...) @proto_tree_add_subtree_format(ptr noundef nonnull %4, ptr noundef %0, i32 noundef 0, i32 noundef 9, i32 noundef %10, ptr noundef null, ptr noundef nonnull @.str.2128, i32 noundef %12)
  %14 = load i32, ptr @hf_r3_alarmlog_recordnumber, align 4
  %15 = tail call ptr @proto_tree_add_item(ptr noundef %13, i32 noundef %14, ptr noundef %0, i32 noundef 0, i32 noundef 2, i32 noundef -2147483648)
  %16 = load i32, ptr @hf_r3_alarmlog_year, align 4
  %17 = tail call ptr @proto_tree_add_item(ptr noundef %13, i32 noundef %16, ptr noundef %0, i32 noundef 2, i32 noundef 1, i32 noundef -2147483648)
  %18 = load i32, ptr @hf_r3_alarmlog_month, align 4
  %19 = tail call ptr @proto_tree_add_item(ptr noundef %13, i32 noundef %18, ptr noundef %0, i32 noundef 3, i32 noundef 1, i32 noundef -2147483648)
  %20 = load i32, ptr @hf_r3_alarmlog_day, align 4
  %21 = tail call ptr @proto_tree_add_item(ptr noundef %13, i32 noundef %20, ptr noundef %0, i32 noundef 4, i32 noundef 1, i32 noundef -2147483648)
  %22 = load i32, ptr @hf_r3_alarmlog_hour, align 4
  %23 = tail call ptr @proto_tree_add_item(ptr noundef %13, i32 noundef %22, ptr noundef %0, i32 noundef 5, i32 noundef 1, i32 noundef -2147483648)
  %24 = load i32, ptr @hf_r3_alarmlog_minute, align 4
  %25 = tail call ptr @proto_tree_add_item(ptr noundef %13, i32 noundef %24, ptr noundef %0, i32 noundef 6, i32 noundef 1, i32 noundef -2147483648)
  %26 = load i32, ptr @hf_r3_alarmlog_second, align 4
  %27 = tail call ptr @proto_tree_add_item(ptr noundef %13, i32 noundef %26, ptr noundef %0, i32 noundef 7, i32 noundef 1, i32 noundef -2147483648)
  %28 = load i32, ptr @hf_r3_alarmlog_id, align 4
  %29 = tail call ptr @proto_tree_add_item(ptr noundef %13, i32 noundef %28, ptr noundef %0, i32 noundef 8, i32 noundef 1, i32 noundef -2147483648)
  %30 = load i32, ptr @hf_r3_alarmlog_usernumber, align 4
  %31 = tail call ptr @proto_tree_add_item(ptr noundef %13, i32 noundef %30, ptr noundef %0, i32 noundef 9, i32 noundef 2, i32 noundef -2147483648)
  br label %32

32:                                               ; preds = %5, %9
  ret void
}